target datalayout = "e-m:e-p270:32:32-p271:32:32-p272:64:64-i64:64-i128:128-f80:128-n8:16:32:64-S128"
target triple = "x86_64-pc-linux-gnu"

%struct.VP8LBitReader = type { i64, ptr, i64, i64, i32, i32 }
%struct.HuffmanTables = type { %struct.HuffmanTablesSegment, ptr }
%struct.HuffmanTablesSegment = type { ptr, ptr, ptr, i32 }
%struct.VP8LDecoder = type { i32, i32, ptr, ptr, ptr, ptr, %struct.VP8LBitReader, i32, %struct.VP8LBitReader, i32, i32, i32, i32, i32, i32, %struct.VP8LMetadata, i32, [4 x %struct.VP8LTransform], i32, ptr, ptr }
%struct.VP8LMetadata = type { i32, %struct.VP8LColorCache, %struct.VP8LColorCache, i32, i32, i32, ptr, i32, ptr, %struct.HuffmanTables }
%struct.VP8LColorCache = type { ptr, i32, i32 }
%struct.VP8LTransform = type { i32, i32, i32, i32, ptr }
%struct.ALPHDecoder = type { i32, i32, i32, i32, i32, ptr, %struct.VP8Io, i32, ptr, ptr }
%struct.VP8Io = type { i32, i32, i32, i32, i32, ptr, ptr, ptr, i32, i32, ptr, ptr, ptr, ptr, i32, i64, ptr, i32, i32, i32, i32, i32, i32, i32, i32, i32, ptr }

@WebPUnfilters = external global [4 x ptr], align 16
@WebPExtractGreen = external global ptr, align 8

; Function Attrs: nounwind uwtable
define internal void @AlphaApplyFilter(ptr noundef %0, i32 noundef %1, i32 noundef %2, ptr noundef %3, i32 noundef %4) #0 {
  %6 = alloca ptr, align 8
  %7 = alloca i32, align 4
  %8 = alloca i32, align 4
  %9 = alloca ptr, align 8
  %10 = alloca i32, align 4
  %11 = alloca i32, align 4
  %12 = alloca ptr, align 8
  store ptr %0, ptr %6, align 8, !tbaa !66
  store i32 %1, ptr %7, align 4, !tbaa !13
  store i32 %2, ptr %8, align 4, !tbaa !13
  store ptr %3, ptr %9, align 8, !tbaa !3
  store i32 %4, ptr %10, align 4, !tbaa !13
  %13 = load ptr, ptr %6, align 8, !tbaa !66
  %14 = getelementptr inbounds nuw %struct.ALPHDecoder, ptr %13, i32 0, i32 3
  %15 = load i32, ptr %14, align 4, !tbaa !150
  %16 = icmp ne i32 %15, 0
  br i1 %16, label %17, label %49

17:                                               ; preds = %5
  call void @llvm.lifetime.start.p0(i64 4, ptr %11) #6
  call void @llvm.lifetime.start.p0(i64 8, ptr %12) #6
  %18 = load ptr, ptr %6, align 8, !tbaa !66
  %19 = getelementptr inbounds nuw %struct.ALPHDecoder, ptr %18, i32 0, i32 9
  %20 = load ptr, ptr %19, align 8, !tbaa !155
  store ptr %20, ptr %12, align 8, !tbaa !3
  %21 = load i32, ptr %7, align 4, !tbaa !13
  store i32 %21, ptr %11, align 4, !tbaa !13
  br label %22

22:                                               ; preds = %42, %17
  %23 = load i32, ptr %11, align 4, !tbaa !13
  %24 = load i32, ptr %8, align 4, !tbaa !13
  %25 = icmp slt i32 %23, %24
  br i1 %25, label %26, label %45

26:                                               ; preds = %22
  %27 = load ptr, ptr %6, align 8, !tbaa !66
  %28 = getelementptr inbounds nuw %struct.ALPHDecoder, ptr %27, i32 0, i32 3
  %29 = load i32, ptr %28, align 4, !tbaa !150
  %30 = zext i32 %29 to i64
  %31 = getelementptr inbounds nuw [4 x ptr], ptr @WebPUnfilters, i64 0, i64 %30
  %32 = load ptr, ptr %31, align 8, !tbaa !15
  %33 = load ptr, ptr %12, align 8, !tbaa !3
  %34 = load ptr, ptr %9, align 8, !tbaa !3
  %35 = load ptr, ptr %9, align 8, !tbaa !3
  %36 = load i32, ptr %10, align 4, !tbaa !13
  call void %32(ptr noundef %33, ptr noundef %34, ptr noundef %35, i32 noundef %36)
  %37 = load ptr, ptr %9, align 8, !tbaa !3
  store ptr %37, ptr %12, align 8, !tbaa !3
  %38 = load i32, ptr %10, align 4, !tbaa !13
  %39 = load ptr, ptr %9, align 8, !tbaa !3
  %40 = sext i32 %38 to i64
  %41 = getelementptr inbounds i8, ptr %39, i64 %40
  store ptr %41, ptr %9, align 8, !tbaa !3
  br label %42

42:                                               ; preds = %26
  %43 = load i32, ptr %11, align 4, !tbaa !13
  %44 = add nsw i32 %43, 1
  store i32 %44, ptr %11, align 4, !tbaa !13
  br label %22, !llvm.loop !156

45:                                               ; preds = %22
  %46 = load ptr, ptr %12, align 8, !tbaa !3
  %47 = load ptr, ptr %6, align 8, !tbaa !66
  %48 = getelementptr inbounds nuw %struct.ALPHDecoder, ptr %47, i32 0, i32 9
  store ptr %46, ptr %48, align 8, !tbaa !155
  call void @llvm.lifetime.end.p0(i64 8, ptr %12) #6
  call void @llvm.lifetime.end.p0(i64 4, ptr %11) #6
  br label %49

49:                                               ; preds = %45, %5
  ret void
}

; Function Attrs: nounwind uwtable
define internal void @ApplyInverseTransforms(ptr noundef %0, i32 noundef %1, i32 noundef %2, ptr noundef %3) #0 {
  %5 = alloca ptr, align 8
  %6 = alloca i32, align 4
  %7 = alloca i32, align 4
  %8 = alloca ptr, align 8
  %9 = alloca i32, align 4
  %10 = alloca i32, align 4
  %11 = alloca i32, align 4
  %12 = alloca ptr, align 8
  %13 = alloca ptr, align 8
  %14 = alloca ptr, align 8
  store ptr %0, ptr %5, align 8, !tbaa !18
  store i32 %1, ptr %6, align 4, !tbaa !13
  store i32 %2, ptr %7, align 4, !tbaa !13
  store ptr %3, ptr %8, align 8, !tbaa !11
  call void @llvm.lifetime.start.p0(i64 4, ptr %9) #6
  %15 = load ptr, ptr %5, align 8, !tbaa !18
  %16 = getelementptr inbounds nuw %struct.VP8LDecoder, ptr %15, i32 0, i32 16
  %17 = load i32, ptr %16, align 8, !tbaa !61
  store i32 %17, ptr %9, align 4, !tbaa !13
  call void @llvm.lifetime.start.p0(i64 4, ptr %10) #6
  %18 = load ptr, ptr %5, align 8, !tbaa !18
  %19 = getelementptr inbounds nuw %struct.VP8LDecoder, ptr %18, i32 0, i32 10
  %20 = load i32, ptr %19, align 4, !tbaa !71
  %21 = load i32, ptr %7, align 4, !tbaa !13
  %22 = mul nsw i32 %20, %21
  store i32 %22, ptr %10, align 4, !tbaa !13
  call void @llvm.lifetime.start.p0(i64 4, ptr %11) #6
  %23 = load i32, ptr %6, align 4, !tbaa !13
  %24 = load i32, ptr %7, align 4, !tbaa !13
  %25 = add nsw i32 %23, %24
  store i32 %25, ptr %11, align 4, !tbaa !13
  call void @llvm.lifetime.start.p0(i64 8, ptr %12) #6
  %26 = load ptr, ptr %8, align 8, !tbaa !11
  store ptr %26, ptr %12, align 8, !tbaa !11
  call void @llvm.lifetime.start.p0(i64 8, ptr %13) #6
  %27 = load ptr, ptr %5, align 8, !tbaa !18
  %28 = getelementptr inbounds nuw %struct.VP8LDecoder, ptr %27, i32 0, i32 5
  %29 = load ptr, ptr %28, align 8, !tbaa !90
  store ptr %29, ptr %13, align 8, !tbaa !11
  br label %30

30:                                               ; preds = %34, %4
  %31 = load i32, ptr %9, align 4, !tbaa !13
  %32 = add nsw i32 %31, -1
  store i32 %32, ptr %9, align 4, !tbaa !13
  %33 = icmp sgt i32 %31, 0
  br i1 %33, label %34, label %46

34:                                               ; preds = %30
  call void @llvm.lifetime.start.p0(i64 8, ptr %14) #6
  %35 = load ptr, ptr %5, align 8, !tbaa !18
  %36 = getelementptr inbounds nuw %struct.VP8LDecoder, ptr %35, i32 0, i32 17
  %37 = load i32, ptr %9, align 4, !tbaa !13
  %38 = sext i32 %37 to i64
  %39 = getelementptr inbounds [4 x %struct.VP8LTransform], ptr %36, i64 0, i64 %38
  store ptr %39, ptr %14, align 8, !tbaa !138
  %40 = load ptr, ptr %14, align 8, !tbaa !138
  %41 = load i32, ptr %6, align 4, !tbaa !13
  %42 = load i32, ptr %11, align 4, !tbaa !13
  %43 = load ptr, ptr %12, align 8, !tbaa !11
  %44 = load ptr, ptr %13, align 8, !tbaa !11
  call void @VP8LInverseTransform(ptr noundef %40, i32 noundef %41, i32 noundef %42, ptr noundef %43, ptr noundef %44)
  %45 = load ptr, ptr %13, align 8, !tbaa !11
  store ptr %45, ptr %12, align 8, !tbaa !11
  call void @llvm.lifetime.end.p0(i64 8, ptr %14) #6
  br label %30, !llvm.loop !167

46:                                               ; preds = %30
  %47 = load ptr, ptr %12, align 8, !tbaa !11
  %48 = load ptr, ptr %13, align 8, !tbaa !11
  %49 = icmp ne ptr %47, %48
  br i1 %49, label %50, label %56

50:                                               ; preds = %46
  %51 = load ptr, ptr %13, align 8, !tbaa !11
  %52 = load ptr, ptr %12, align 8, !tbaa !11
  %53 = load i32, ptr %10, align 4, !tbaa !13
  %54 = sext i32 %53 to i64
  %55 = mul i64 %54, 4
  call void @llvm.memcpy.p0.p0.i64(ptr align 4 %51, ptr align 4 %52, i64 %55, i1 false)
  br label %56

56:                                               ; preds = %50, %46
  call void @llvm.lifetime.end.p0(i64 8, ptr %13) #6
  call void @llvm.lifetime.end.p0(i64 8, ptr %12) #6
  call void @llvm.lifetime.end.p0(i64 4, ptr %11) #6
  call void @llvm.lifetime.end.p0(i64 4, ptr %10) #6
  call void @llvm.lifetime.end.p0(i64 4, ptr %9) #6
  ret void
}

; Function Attrs: nounwind uwtable
define internal void @ExtractAlphaRows(ptr noundef %0, i32 noundef %1) #0 {
  %3 = alloca ptr, align 8
  %4 = alloca i32, align 4
  %5 = alloca i32, align 4
  %6 = alloca i32, align 4
  %7 = alloca ptr, align 8
  %8 = alloca i32, align 4
  %9 = alloca ptr, align 8
  %10 = alloca ptr, align 8
  %11 = alloca i32, align 4
  %12 = alloca i32, align 4
  %13 = alloca ptr, align 8
  %14 = alloca ptr, align 8
  store ptr %0, ptr %3, align 8, !tbaa !18
  store i32 %1, ptr %4, align 4, !tbaa !13
  call void @llvm.lifetime.start.p0(i64 4, ptr %5) #6
  %15 = load ptr, ptr %3, align 8, !tbaa !18
  %16 = getelementptr inbounds nuw %struct.VP8LDecoder, ptr %15, i32 0, i32 12
  %17 = load i32, ptr %16, align 4, !tbaa !91
  store i32 %17, ptr %5, align 4, !tbaa !13
  call void @llvm.lifetime.start.p0(i64 4, ptr %6) #6
  %18 = load i32, ptr %4, align 4, !tbaa !13
  %19 = load i32, ptr %5, align 4, !tbaa !13
  %20 = sub nsw i32 %18, %19
  store i32 %20, ptr %6, align 4, !tbaa !13
  call void @llvm.lifetime.start.p0(i64 8, ptr %7) #6
  %21 = load ptr, ptr %3, align 8, !tbaa !18
  %22 = getelementptr inbounds nuw %struct.VP8LDecoder, ptr %21, i32 0, i32 4
  %23 = load ptr, ptr %22, align 8, !tbaa !60
  %24 = load ptr, ptr %3, align 8, !tbaa !18
  %25 = getelementptr inbounds nuw %struct.VP8LDecoder, ptr %24, i32 0, i32 10
  %26 = load i32, ptr %25, align 4, !tbaa !71
  %27 = load i32, ptr %5, align 4, !tbaa !13
  %28 = mul nsw i32 %26, %27
  %29 = sext i32 %28 to i64
  %30 = getelementptr inbounds i32, ptr %23, i64 %29
  store ptr %30, ptr %7, align 8, !tbaa !11
  br label %31

31:                                               ; preds = %40, %2
  %32 = load i32, ptr %6, align 4, !tbaa !13
  %33 = icmp sgt i32 %32, 0
  br i1 %33, label %34, label %96

34:                                               ; preds = %31
  call void @llvm.lifetime.start.p0(i64 4, ptr %8) #6
  %35 = load i32, ptr %6, align 4, !tbaa !13
  %36 = icmp sgt i32 %35, 16
  br i1 %36, label %37, label %38

37:                                               ; preds = %34
  br label %40

38:                                               ; preds = %34
  %39 = load i32, ptr %6, align 4, !tbaa !13
  br label %40

40:                                               ; preds = %38, %37
  %41 = phi i32 [ 16, %37 ], [ %39, %38 ]
  store i32 %41, ptr %8, align 4, !tbaa !13
  call void @llvm.lifetime.start.p0(i64 8, ptr %9) #6
  %42 = load ptr, ptr %3, align 8, !tbaa !18
  %43 = getelementptr inbounds nuw %struct.VP8LDecoder, ptr %42, i32 0, i32 2
  %44 = load ptr, ptr %43, align 8, !tbaa !74
  %45 = getelementptr inbounds nuw %struct.VP8Io, ptr %44, i32 0, i32 10
  %46 = load ptr, ptr %45, align 8, !tbaa !75
  store ptr %46, ptr %9, align 8, !tbaa !66
  call void @llvm.lifetime.start.p0(i64 8, ptr %10) #6
  %47 = load ptr, ptr %9, align 8, !tbaa !66
  %48 = getelementptr inbounds nuw %struct.ALPHDecoder, ptr %47, i32 0, i32 8
  %49 = load ptr, ptr %48, align 8, !tbaa !101
  store ptr %49, ptr %10, align 8, !tbaa !3
  call void @llvm.lifetime.start.p0(i64 4, ptr %11) #6
  %50 = load ptr, ptr %3, align 8, !tbaa !18
  %51 = getelementptr inbounds nuw %struct.VP8LDecoder, ptr %50, i32 0, i32 2
  %52 = load ptr, ptr %51, align 8, !tbaa !74
  %53 = getelementptr inbounds nuw %struct.VP8Io, ptr %52, i32 0, i32 0
  %54 = load i32, ptr %53, align 8, !tbaa !76
  store i32 %54, ptr %11, align 4, !tbaa !13
  call void @llvm.lifetime.start.p0(i64 4, ptr %12) #6
  %55 = load i32, ptr %11, align 4, !tbaa !13
  %56 = load i32, ptr %8, align 4, !tbaa !13
  %57 = mul nsw i32 %55, %56
  store i32 %57, ptr %12, align 4, !tbaa !13
  call void @llvm.lifetime.start.p0(i64 8, ptr %13) #6
  %58 = load ptr, ptr %10, align 8, !tbaa !3
  %59 = load i32, ptr %11, align 4, !tbaa !13
  %60 = load i32, ptr %5, align 4, !tbaa !13
  %61 = mul nsw i32 %59, %60
  %62 = sext i32 %61 to i64
  %63 = getelementptr inbounds i8, ptr %58, i64 %62
  store ptr %63, ptr %13, align 8, !tbaa !3
  call void @llvm.lifetime.start.p0(i64 8, ptr %14) #6
  %64 = load ptr, ptr %3, align 8, !tbaa !18
  %65 = getelementptr inbounds nuw %struct.VP8LDecoder, ptr %64, i32 0, i32 5
  %66 = load ptr, ptr %65, align 8, !tbaa !90
  store ptr %66, ptr %14, align 8, !tbaa !11
  %67 = load ptr, ptr %3, align 8, !tbaa !18
  %68 = load i32, ptr %5, align 4, !tbaa !13
  %69 = load i32, ptr %8, align 4, !tbaa !13
  %70 = load ptr, ptr %7, align 8, !tbaa !11
  call void @ApplyInverseTransforms(ptr noundef %67, i32 noundef %68, i32 noundef %69, ptr noundef %70)
  %71 = load ptr, ptr @WebPExtractGreen, align 8, !tbaa !15
  %72 = load ptr, ptr %14, align 8, !tbaa !11
  %73 = load ptr, ptr %13, align 8, !tbaa !3
  %74 = load i32, ptr %12, align 4, !tbaa !13
  call void %71(ptr noundef %72, ptr noundef %73, i32 noundef %74)
  %75 = load ptr, ptr %9, align 8, !tbaa !66
  %76 = load i32, ptr %5, align 4, !tbaa !13
  %77 = load i32, ptr %5, align 4, !tbaa !13
  %78 = load i32, ptr %8, align 4, !tbaa !13
  %79 = add nsw i32 %77, %78
  %80 = load ptr, ptr %13, align 8, !tbaa !3
  %81 = load i32, ptr %11, align 4, !tbaa !13
  call void @AlphaApplyFilter(ptr noundef %75, i32 noundef %76, i32 noundef %79, ptr noundef %80, i32 noundef %81)
  %82 = load i32, ptr %8, align 4, !tbaa !13
  %83 = load i32, ptr %6, align 4, !tbaa !13
  %84 = sub nsw i32 %83, %82
  store i32 %84, ptr %6, align 4, !tbaa !13
  %85 = load i32, ptr %8, align 4, !tbaa !13
  %86 = load ptr, ptr %3, align 8, !tbaa !18
  %87 = getelementptr inbounds nuw %struct.VP8LDecoder, ptr %86, i32 0, i32 10
  %88 = load i32, ptr %87, align 4, !tbaa !71
  %89 = mul nsw i32 %85, %88
  %90 = load ptr, ptr %7, align 8, !tbaa !11
  %91 = sext i32 %89 to i64
  %92 = getelementptr inbounds i32, ptr %90, i64 %91
  store ptr %92, ptr %7, align 8, !tbaa !11
  %93 = load i32, ptr %8, align 4, !tbaa !13
  %94 = load i32, ptr %5, align 4, !tbaa !13
  %95 = add nsw i32 %94, %93
  store i32 %95, ptr %5, align 4, !tbaa !13
  call void @llvm.lifetime.end.p0(i64 8, ptr %14) #6
  call void @llvm.lifetime.end.p0(i64 8, ptr %13) #6
  call void @llvm.lifetime.end.p0(i64 4, ptr %12) #6
  call void @llvm.lifetime.end.p0(i64 4, ptr %11) #6
  call void @llvm.lifetime.end.p0(i64 8, ptr %10) #6
  call void @llvm.lifetime.end.p0(i64 8, ptr %9) #6
  call void @llvm.lifetime.end.p0(i64 4, ptr %8) #6
  br label %31, !llvm.loop !102

96:                                               ; preds = %31
  %97 = load i32, ptr %4, align 4, !tbaa !13
  %98 = load ptr, ptr %3, align 8, !tbaa !18
  %99 = getelementptr inbounds nuw %struct.VP8LDecoder, ptr %98, i32 0, i32 14
  store i32 %97, ptr %99, align 4, !tbaa !103
  %100 = load ptr, ptr %3, align 8, !tbaa !18
  %101 = getelementptr inbounds nuw %struct.VP8LDecoder, ptr %100, i32 0, i32 12
  store i32 %97, ptr %101, align 4, !tbaa !91
  call void @llvm.lifetime.end.p0(i64 8, ptr %7) #6
  call void @llvm.lifetime.end.p0(i64 4, ptr %6) #6
  call void @llvm.lifetime.end.p0(i64 4, ptr %5) #6
  ret void
}