; Function Attrs: nounwind uwtable
define internal void @ExtractAlphaRows(ptr noundef %0, i32 noundef %1) #1 {
  %3 = getelementptr inbounds nuw i8, ptr %0, i64 140
  %4 = load i32, ptr %3, align 4, !tbaa !93
  %5 = sub nsw i32 %1, %4
  %6 = getelementptr inbounds nuw i8, ptr %0, i64 132
  %7 = icmp sgt i32 %5, 0
  br i1 %7, label %.lr.ph, label %._crit_edge

.lr.ph:                                           ; preds = %2
  %8 = getelementptr inbounds nuw i8, ptr %0, i64 24
  %9 = load ptr, ptr %8, align 8, !tbaa !56
  %10 = load i32, ptr %6, align 4, !tbaa !68
  %11 = mul nsw i32 %10, %4
  %12 = sext i32 %11 to i64
  %13 = getelementptr inbounds i32, ptr %9, i64 %12
  %14 = getelementptr inbounds nuw i8, ptr %0, i64 8
  %15 = getelementptr inbounds nuw i8, ptr %0, i64 32
  %16 = getelementptr inbounds nuw i8, ptr %0, i64 272
  %17 = getelementptr inbounds nuw i8, ptr %0, i64 280
  br label %18

18:                                               ; preds = %.lr.ph, %AlphaApplyFilter.exit
  %19 = phi i32 [ %10, %.lr.ph ], [ %57, %AlphaApplyFilter.exit ]
  %.047 = phi i32 [ %4, %.lr.ph ], [ %34, %AlphaApplyFilter.exit ]
  %.04046 = phi i32 [ %5, %.lr.ph ], [ %56, %AlphaApplyFilter.exit ]
  %.04145 = phi ptr [ %13, %.lr.ph ], [ %60, %AlphaApplyFilter.exit ]
  %20 = tail call i32 @llvm.umin.i32(i32 %.04046, i32 16)
  %21 = load ptr, ptr %14, align 8, !tbaa !71
  %22 = getelementptr inbounds nuw i8, ptr %21, i64 56
  %23 = load ptr, ptr %22, align 8, !tbaa !72
  %24 = getelementptr inbounds nuw i8, ptr %23, i64 200
  %25 = load ptr, ptr %24, align 8, !tbaa !95
  %26 = load i32, ptr %21, align 8, !tbaa !73
  %27 = mul nsw i32 %26, %20
  %28 = mul nsw i32 %26, %.047
  %29 = sext i32 %28 to i64
  %30 = getelementptr inbounds i8, ptr %25, i64 %29
  %31 = load ptr, ptr %15, align 8, !tbaa !80
  %32 = load i32, ptr %16, align 8, !tbaa !57
  %33 = mul nsw i32 %19, %20
  %34 = add nsw i32 %20, %.047
  %35 = icmp sgt i32 %32, 0
  br i1 %35, label %.lr.ph.i, label %._crit_edge.i

.lr.ph.i:                                         ; preds = %18
  %36 = zext nneg i32 %32 to i64
  br label %37

37:                                               ; preds = %37, %.lr.ph.i
  %indvars.iv.i = phi i64 [ %36, %.lr.ph.i ], [ %indvars.iv.next.i, %37 ]
  %.02022.i = phi ptr [ %.04145, %.lr.ph.i ], [ %31, %37 ]
  %indvars.iv.next.i = add nsw i64 %indvars.iv.i, -1
  %38 = getelementptr inbounds nuw [4 x %struct.VP8LTransform], ptr %17, i64 0, i64 %indvars.iv.next.i
  tail call void @VP8LInverseTransform(ptr noundef nonnull %38, i32 noundef %.047, i32 noundef %34, ptr noundef %.02022.i, ptr noundef %31) #8
  %39 = icmp samesign ugt i64 %indvars.iv.i, 1
  br i1 %39, label %37, label %ApplyInverseTransforms.exit, !llvm.loop !119

._crit_edge.i:                                    ; preds = %18
  %.not.i = icmp eq ptr %.04145, %31
  br i1 %.not.i, label %ApplyInverseTransforms.exit, label %40

40:                                               ; preds = %._crit_edge.i
  %41 = sext i32 %33 to i64
  %42 = shl nsw i64 %41, 2
  tail call void @llvm.memcpy.p0.p0.i64(ptr align 4 %31, ptr align 4 %.04145, i64 %42, i1 false)
  br label %ApplyInverseTransforms.exit

ApplyInverseTransforms.exit:                      ; preds = %37, %._crit_edge.i, %40
  %43 = load ptr, ptr @WebPExtractGreen, align 8, !tbaa !31
  tail call void %43(ptr noundef %31, ptr noundef %30, i32 noundef %27) #8
  %44 = getelementptr inbounds nuw i8, ptr %23, i64 12
  %45 = load i32, ptr %44, align 4, !tbaa !94
  %.not.i42 = icmp eq i32 %45, 0
  br i1 %.not.i42, label %AlphaApplyFilter.exit, label %.lr.ph.i44

.lr.ph.i44:                                       ; preds = %ApplyInverseTransforms.exit
  %46 = getelementptr inbounds nuw i8, ptr %23, i64 208
  %47 = load ptr, ptr %46, align 8, !tbaa !96
  %48 = sext i32 %26 to i64
  br label %49

49:                                               ; preds = %49, %.lr.ph.i44
  %.019.i = phi ptr [ %47, %.lr.ph.i44 ], [ %.01617.i, %49 ]
  %.01518.i = phi i32 [ %.047, %.lr.ph.i44 ], [ %55, %49 ]
  %.01617.i = phi ptr [ %30, %.lr.ph.i44 ], [ %54, %49 ]
  %50 = load i32, ptr %44, align 4, !tbaa !94
  %51 = zext i32 %50 to i64
  %52 = getelementptr inbounds nuw [4 x ptr], ptr @WebPUnfilters, i64 0, i64 %51
  %53 = load ptr, ptr %52, align 8, !tbaa !31
  tail call void %53(ptr noundef %.019.i, ptr noundef %.01617.i, ptr noundef %.01617.i, i32 noundef %26) #8
  %54 = getelementptr inbounds i8, ptr %.01617.i, i64 %48
  %55 = add i32 %.01518.i, 1
  %exitcond.not.i = icmp eq i32 %55, %34
  br i1 %exitcond.not.i, label %._crit_edge.i43, label %49, !llvm.loop !97

._crit_edge.i43:                                  ; preds = %49
  store ptr %.01617.i, ptr %46, align 8, !tbaa !96
  br label %AlphaApplyFilter.exit

AlphaApplyFilter.exit:                            ; preds = %ApplyInverseTransforms.exit, %._crit_edge.i43
  %56 = sub nsw i32 %.04046, %20
  %57 = load i32, ptr %6, align 4, !tbaa !68
  %58 = mul nsw i32 %57, %20
  %59 = sext i32 %58 to i64
  %60 = getelementptr inbounds i32, ptr %.04145, i64 %59
  %61 = icmp sgt i32 %56, 0
  br i1 %61, label %18, label %._crit_edge, !llvm.loop !120

._crit_edge:                                      ; preds = %AlphaApplyFilter.exit, %2
  %62 = getelementptr inbounds nuw i8, ptr %0, i64 148
  store i32 %1, ptr %62, align 4, !tbaa !98
  store i32 %1, ptr %3, align 4, !tbaa !93
  ret void
}